target datalayout = "e-m:e-p270:32:32-p271:32:32-p272:64:64-i64:64-i128:128-f80:128-n8:16:32:64-S128"
target triple = "x86_64-pc-linux-gnu"

%struct.maybe_retry_data_st = type { i32 }

; Function Attrs: nounwind uwtable
define internal i32 @maybe_retry_write(ptr noundef %0, ptr noundef %1, i32 noundef %2) #0 {
  %4 = alloca i32, align 4
  %5 = alloca ptr, align 8
  %6 = alloca ptr, align 8
  %7 = alloca i32, align 4
  %8 = alloca ptr, align 8
  %9 = alloca i32, align 4
  store ptr %0, ptr %5, align 8, !tbaa !9
  store ptr %1, ptr %6, align 8, !tbaa !11
  store i32 %2, ptr %7, align 4, !tbaa !13
  call void @llvm.lifetime.start.p0(i64 8, ptr %8) #10
  %10 = load ptr, ptr %5, align 8, !tbaa !9
  %11 = call ptr @BIO_get_data(ptr noundef %10)
  store ptr %11, ptr %8, align 8, !tbaa !51
  %12 = load ptr, ptr %8, align 8, !tbaa !51
  %13 = icmp eq ptr %12, null
  br i1 %13, label %14, label %15

14:                                               ; preds = %3
  store i32 -1, ptr %4, align 4
  store i32 1, ptr %9, align 4
  br label %32

15:                                               ; preds = %3
  %16 = load ptr, ptr %8, align 8, !tbaa !51
  %17 = getelementptr inbounds nuw %struct.maybe_retry_data_st, ptr %16, i32 0, i32 0
  %18 = load i32, ptr %17, align 4, !tbaa !53
  %19 = icmp eq i32 %18, 0
  br i1 %19, label %20, label %22

20:                                               ; preds = %15
  %21 = load ptr, ptr %5, align 8, !tbaa !9
  call void @BIO_set_flags(ptr noundef %21, i32 noundef 10)
  store i32 -1, ptr %4, align 4
  store i32 1, ptr %9, align 4
  br label %32

22:                                               ; preds = %15
  %23 = load ptr, ptr %8, align 8, !tbaa !51
  %24 = getelementptr inbounds nuw %struct.maybe_retry_data_st, ptr %23, i32 0, i32 0
  %25 = load i32, ptr %24, align 4, !tbaa !53
  %26 = add i32 %25, -1
  store i32 %26, ptr %24, align 4, !tbaa !53
  %27 = load ptr, ptr %5, align 8, !tbaa !9
  %28 = call ptr @BIO_next(ptr noundef %27)
  %29 = load ptr, ptr %6, align 8, !tbaa !11
  %30 = load i32, ptr %7, align 4, !tbaa !13
  %31 = call i32 @BIO_write(ptr noundef %28, ptr noundef %29, i32 noundef %30)
  store i32 %31, ptr %4, align 4
  store i32 1, ptr %9, align 4
  br label %32

32:                                               ; preds = %22, %20, %14
  call void @llvm.lifetime.end.p0(i64 8, ptr %8) #10
  %33 = load i32, ptr %4, align 4
  ret i32 %33
}