; Function Attrs: nounwind uwtable
define internal i32 @maybe_retry_write(ptr noundef %0, ptr noundef %1, i32 noundef %2) #0 {
  %4 = tail call ptr @BIO_get_data(ptr noundef %0) #14
  %5 = icmp eq ptr %4, null
  br i1 %5, label %14, label %6

6:                                                ; preds = %3
  %7 = load i32, ptr %4, align 4, !tbaa !46
  %8 = icmp eq i32 %7, 0
  br i1 %8, label %9, label %10

9:                                                ; preds = %6
  tail call void @BIO_set_flags(ptr noundef %0, i32 noundef 10) #14
  br label %14

10:                                               ; preds = %6
  %11 = add i32 %7, -1
  store i32 %11, ptr %4, align 4, !tbaa !46
  %12 = tail call ptr @BIO_next(ptr noundef %0) #14
  %13 = tail call i32 @BIO_write(ptr noundef %12, ptr noundef %1, i32 noundef %2) #14
  br label %14

14:                                               ; preds = %3, %10, %9
  %.0 = phi i32 [ -1, %9 ], [ %13, %10 ], [ -1, %3 ]
  ret i32 %.0
}